target datalayout = "e-m:e-p270:32:32-p271:32:32-p272:64:64-i64:64-i128:128-f80:128-n8:16:32:64-S128"
target triple = "x86_64-pc-linux-gnu"

%struct.TValue = type { %union.Value, i8 }
%union.Value = type { ptr }
%struct.TString = type { ptr, i8, i8, i8, i8, i32, %union.anon, ptr, ptr, ptr }
%union.anon = type { i64 }
%struct.Table = type { ptr, i8, i8, i8, i8, i32, ptr, ptr, ptr, ptr }
%struct.lua_State = type { ptr, i8, i8, i8, i8, i16, %union.StkIdRel, ptr, ptr, %union.StkIdRel, %union.StkIdRel, ptr, %union.StkIdRel, ptr, ptr, ptr, %struct.CallInfo, ptr, i64, i32, i32, i32, i32, i32, %struct.anon.3 }
%union.StkIdRel = type { ptr }
%struct.CallInfo = type { %union.StkIdRel, %union.StkIdRel, ptr, ptr, %union.anon.0, %union.anon.2, i32 }
%union.anon.0 = type { %struct.anon.1 }
%struct.anon.1 = type { ptr, i64, i64 }
%union.anon.2 = type { i32 }
%struct.anon.3 = type { i32, i32 }
%struct.global_State = type { ptr, ptr, i64, i64, i64, i64, %struct.stringtable, %struct.TValue, %struct.TValue, i32, [6 x i8], i8, i8, i8, i8, i8, i8, ptr, ptr, ptr, ptr, ptr, ptr, ptr, ptr, ptr, ptr, ptr, ptr, ptr, ptr, ptr, ptr, ptr, ptr, ptr, ptr, ptr, [25 x ptr], [9 x ptr], [53 x [2 x ptr]], ptr, ptr }
%struct.stringtable = type { ptr, i32, i32 }

@.str.4 = private unnamed_addr constant [14 x i8] c"get length of\00", align 1

; Function Attrs: nounwind uwtable
define hidden void @luaV_objlen(ptr noundef %0, ptr noundef %1, ptr noundef %2) #0 {
  %4 = alloca ptr, align 8
  %5 = alloca ptr, align 8
  %6 = alloca ptr, align 8
  %7 = alloca ptr, align 8
  %8 = alloca ptr, align 8
  %9 = alloca i32, align 4
  %10 = alloca ptr, align 8
  %11 = alloca ptr, align 8
  %12 = alloca ptr, align 8
  store ptr %0, ptr %4, align 8, !tbaa !32
  store ptr %1, ptr %5, align 8, !tbaa !34
  store ptr %2, ptr %6, align 8, !tbaa !4
  call void @llvm.lifetime.start.p0(i64 8, ptr %7) #10
  %13 = load ptr, ptr %6, align 8, !tbaa !4
  %14 = getelementptr inbounds nuw %struct.TValue, ptr %13, i32 0, i32 1
  %15 = load i8, ptr %14, align 8, !tbaa !11
  %16 = zext i8 %15 to i32
  %17 = and i32 %16, 63
  switch i32 %17, label %85 [
    i32 5, label %18
    i32 4, label %62
    i32 20, label %74
  ]

18:                                               ; preds = %3
  call void @llvm.lifetime.start.p0(i64 8, ptr %8) #10
  %19 = load ptr, ptr %6, align 8, !tbaa !4
  %20 = getelementptr inbounds nuw %struct.TValue, ptr %19, i32 0, i32 0
  %21 = load ptr, ptr %20, align 8, !tbaa !13
  store ptr %21, ptr %8, align 8, !tbaa !51
  %22 = load ptr, ptr %8, align 8, !tbaa !51
  %23 = getelementptr inbounds nuw %struct.Table, ptr %22, i32 0, i32 8
  %24 = load ptr, ptr %23, align 8, !tbaa !36
  %25 = icmp eq ptr %24, null
  br i1 %25, label %35, label %26

26:                                               ; preds = %18
  %27 = load ptr, ptr %8, align 8, !tbaa !51
  %28 = getelementptr inbounds nuw %struct.Table, ptr %27, i32 0, i32 8
  %29 = load ptr, ptr %28, align 8, !tbaa !36
  %30 = getelementptr inbounds nuw %struct.Table, ptr %29, i32 0, i32 3
  %31 = load i8, ptr %30, align 2, !tbaa !41
  %32 = zext i8 %31 to i32
  %33 = and i32 %32, 16
  %34 = icmp ne i32 %33, 0
  br i1 %34, label %35, label %36

35:                                               ; preds = %26, %18
  br label %47

36:                                               ; preds = %26
  %37 = load ptr, ptr %8, align 8, !tbaa !51
  %38 = getelementptr inbounds nuw %struct.Table, ptr %37, i32 0, i32 8
  %39 = load ptr, ptr %38, align 8, !tbaa !36
  %40 = load ptr, ptr %4, align 8, !tbaa !32
  %41 = getelementptr inbounds nuw %struct.lua_State, ptr %40, i32 0, i32 7
  %42 = load ptr, ptr %41, align 8, !tbaa !42
  %43 = getelementptr inbounds nuw %struct.global_State, ptr %42, i32 0, i32 38
  %44 = getelementptr inbounds [25 x ptr], ptr %43, i64 0, i64 4
  %45 = load ptr, ptr %44, align 8, !tbaa !16
  %46 = call ptr @luaT_gettm(ptr noundef %39, i32 noundef 4, ptr noundef %45)
  br label %47

47:                                               ; preds = %36, %35
  %48 = phi ptr [ null, %35 ], [ %46, %36 ]
  store ptr %48, ptr %7, align 8, !tbaa !4
  %49 = load ptr, ptr %7, align 8, !tbaa !4
  %50 = icmp ne ptr %49, null
  br i1 %50, label %51, label %52

51:                                               ; preds = %47
  store i32 2, ptr %9, align 4
  br label %60

52:                                               ; preds = %47
  call void @llvm.lifetime.start.p0(i64 8, ptr %10) #10
  %53 = load ptr, ptr %5, align 8, !tbaa !34
  store ptr %53, ptr %10, align 8, !tbaa !4
  %54 = load ptr, ptr %8, align 8, !tbaa !51
  %55 = call i64 @luaH_getn(ptr noundef %54)
  %56 = load ptr, ptr %10, align 8, !tbaa !4
  %57 = getelementptr inbounds nuw %struct.TValue, ptr %56, i32 0, i32 0
  store i64 %55, ptr %57, align 8, !tbaa !13
  %58 = load ptr, ptr %10, align 8, !tbaa !4
  %59 = getelementptr inbounds nuw %struct.TValue, ptr %58, i32 0, i32 1
  store i8 3, ptr %59, align 8, !tbaa !11
  call void @llvm.lifetime.end.p0(i64 8, ptr %10) #10
  store i32 1, ptr %9, align 4
  br label %60

60:                                               ; preds = %52, %51
  call void @llvm.lifetime.end.p0(i64 8, ptr %8) #10
  %61 = load i32, ptr %9, align 4
  switch i32 %61, label %112 [
    i32 2, label %105
  ]

62:                                               ; preds = %3
  call void @llvm.lifetime.start.p0(i64 8, ptr %11) #10
  %63 = load ptr, ptr %5, align 8, !tbaa !34
  store ptr %63, ptr %11, align 8, !tbaa !4
  %64 = load ptr, ptr %6, align 8, !tbaa !4
  %65 = getelementptr inbounds nuw %struct.TValue, ptr %64, i32 0, i32 0
  %66 = load ptr, ptr %65, align 8, !tbaa !13
  %67 = getelementptr inbounds nuw %struct.TString, ptr %66, i32 0, i32 4
  %68 = load i8, ptr %67, align 1, !tbaa !18
  %69 = sext i8 %68 to i64
  %70 = load ptr, ptr %11, align 8, !tbaa !4
  %71 = getelementptr inbounds nuw %struct.TValue, ptr %70, i32 0, i32 0
  store i64 %69, ptr %71, align 8, !tbaa !13
  %72 = load ptr, ptr %11, align 8, !tbaa !4
  %73 = getelementptr inbounds nuw %struct.TValue, ptr %72, i32 0, i32 1
  store i8 3, ptr %73, align 8, !tbaa !11
  call void @llvm.lifetime.end.p0(i64 8, ptr %11) #10
  store i32 1, ptr %9, align 4
  br label %112

74:                                               ; preds = %3
  call void @llvm.lifetime.start.p0(i64 8, ptr %12) #10
  %75 = load ptr, ptr %5, align 8, !tbaa !34
  store ptr %75, ptr %12, align 8, !tbaa !4
  %76 = load ptr, ptr %6, align 8, !tbaa !4
  %77 = getelementptr inbounds nuw %struct.TValue, ptr %76, i32 0, i32 0
  %78 = load ptr, ptr %77, align 8, !tbaa !13
  %79 = getelementptr inbounds nuw %struct.TString, ptr %78, i32 0, i32 6
  %80 = load i64, ptr %79, align 8, !tbaa !13
  %81 = load ptr, ptr %12, align 8, !tbaa !4
  %82 = getelementptr inbounds nuw %struct.TValue, ptr %81, i32 0, i32 0
  store i64 %80, ptr %82, align 8, !tbaa !13
  %83 = load ptr, ptr %12, align 8, !tbaa !4
  %84 = getelementptr inbounds nuw %struct.TValue, ptr %83, i32 0, i32 1
  store i8 3, ptr %84, align 8, !tbaa !11
  call void @llvm.lifetime.end.p0(i64 8, ptr %12) #10
  store i32 1, ptr %9, align 4
  br label %112

85:                                               ; preds = %3
  %86 = load ptr, ptr %4, align 8, !tbaa !32
  %87 = load ptr, ptr %6, align 8, !tbaa !4
  %88 = call ptr @luaT_gettmbyobj(ptr noundef %86, ptr noundef %87, i32 noundef 4)
  store ptr %88, ptr %7, align 8, !tbaa !4
  %89 = load ptr, ptr %7, align 8, !tbaa !4
  %90 = getelementptr inbounds nuw %struct.TValue, ptr %89, i32 0, i32 1
  %91 = load i8, ptr %90, align 8, !tbaa !11
  %92 = zext i8 %91 to i32
  %93 = and i32 %92, 15
  %94 = icmp eq i32 %93, 0
  %95 = zext i1 %94 to i32
  %96 = icmp ne i32 %95, 0
  %97 = zext i1 %96 to i32
  %98 = sext i32 %97 to i64
  %99 = call i64 @llvm.expect.i64(i64 %98, i64 0)
  %100 = icmp ne i64 %99, 0
  br i1 %100, label %101, label %104

101:                                              ; preds = %85
  %102 = load ptr, ptr %4, align 8, !tbaa !32
  %103 = load ptr, ptr %6, align 8, !tbaa !4
  call void @luaG_typeerror(ptr noundef %102, ptr noundef %103, ptr noundef @.str.4) #11
  unreachable

104:                                              ; preds = %85
  br label %105

105:                                              ; preds = %104, %60
  %106 = load ptr, ptr %4, align 8, !tbaa !32
  %107 = load ptr, ptr %7, align 8, !tbaa !4
  %108 = load ptr, ptr %6, align 8, !tbaa !4
  %109 = load ptr, ptr %6, align 8, !tbaa !4
  %110 = load ptr, ptr %5, align 8, !tbaa !34
  %111 = call zeroext i8 @luaT_callTMres(ptr noundef %106, ptr noundef %107, ptr noundef %108, ptr noundef %109, ptr noundef %110)
  store i32 0, ptr %9, align 4
  br label %112

112:                                              ; preds = %105, %74, %62, %60
  call void @llvm.lifetime.end.p0(i64 8, ptr %7) #10
  %113 = load i32, ptr %9, align 4
  switch i32 %113, label %115 [
    i32 0, label %114
    i32 1, label %114
  ]

114:                                              ; preds = %112, %112
  ret void

115:                                              ; preds = %112
  unreachable
}