; Function Attrs: nounwind uwtable
define hidden void @luaV_objlen(ptr noundef %0, ptr noundef %1, ptr noundef %2) local_unnamed_addr #0 {
  %4 = getelementptr inbounds nuw i8, ptr %2, i64 8
  %5 = load i8, ptr %4, align 8, !tbaa !4
  %6 = and i8 %5, 63
  switch i8 %6, label %35 [
    i8 5, label %7
    i8 4, label %24
    i8 20, label %30
  ]

7:                                                ; preds = %3
  %8 = load ptr, ptr %2, align 8, !tbaa !8
  %9 = getelementptr inbounds nuw i8, ptr %8, i64 32
  %10 = load ptr, ptr %9, align 8, !tbaa !21
  %11 = icmp eq ptr %10, null
  br i1 %11, label %.thread, label %12

12:                                               ; preds = %7
  %13 = getelementptr inbounds nuw i8, ptr %10, i64 10
  %14 = load i8, ptr %13, align 2, !tbaa !26
  %15 = and i8 %14, 16
  %.not = icmp eq i8 %15, 0
  br i1 %.not, label %16, label %.thread

16:                                               ; preds = %12
  %17 = getelementptr inbounds nuw i8, ptr %0, i64 24
  %18 = load ptr, ptr %17, align 8, !tbaa !27
  %19 = getelementptr inbounds nuw i8, ptr %18, i64 312
  %20 = load ptr, ptr %19, align 8, !tbaa !38
  %21 = tail call ptr @luaT_gettm(ptr noundef nonnull %10, i32 noundef 4, ptr noundef %20) #13
  %.not31.not = icmp eq ptr %21, null
  br i1 %.not31.not, label %.thread, label %.critedge

.thread:                                          ; preds = %7, %12, %16
  %22 = tail call i64 @luaH_getn(ptr noundef nonnull %8) #13
  store i64 %22, ptr %1, align 8, !tbaa !8
  %23 = getelementptr inbounds nuw i8, ptr %1, i64 8
  store i8 3, ptr %23, align 8, !tbaa !4
  br label %43

24:                                               ; preds = %3
  %25 = load ptr, ptr %2, align 8, !tbaa !8
  %26 = getelementptr inbounds nuw i8, ptr %25, i64 11
  %27 = load i8, ptr %26, align 1, !tbaa !9
  %28 = sext i8 %27 to i64
  store i64 %28, ptr %1, align 8, !tbaa !8
  %29 = getelementptr inbounds nuw i8, ptr %1, i64 8
  store i8 3, ptr %29, align 8, !tbaa !4
  br label %43

30:                                               ; preds = %3
  %31 = load ptr, ptr %2, align 8, !tbaa !8
  %32 = getelementptr inbounds nuw i8, ptr %31, i64 16
  %33 = load i64, ptr %32, align 8, !tbaa !8
  store i64 %33, ptr %1, align 8, !tbaa !8
  %34 = getelementptr inbounds nuw i8, ptr %1, i64 8
  store i8 3, ptr %34, align 8, !tbaa !4
  br label %43

35:                                               ; preds = %3
  %36 = tail call ptr @luaT_gettmbyobj(ptr noundef %0, ptr noundef nonnull %2, i32 noundef 4) #13
  %37 = getelementptr inbounds nuw i8, ptr %36, i64 8
  %38 = load i8, ptr %37, align 8, !tbaa !4
  %39 = and i8 %38, 15
  %40 = icmp eq i8 %39, 0
  br i1 %40, label %41, label %.critedge, !prof !20

41:                                               ; preds = %35
  tail call void @luaG_typeerror(ptr noundef %0, ptr noundef nonnull %2, ptr noundef nonnull @.str.4) #14
  unreachable

.critedge:                                        ; preds = %16, %35
  %.0 = phi ptr [ %36, %35 ], [ %21, %16 ]
  %42 = tail call zeroext i8 @luaT_callTMres(ptr noundef %0, ptr noundef nonnull %.0, ptr noundef nonnull %2, ptr noundef nonnull %2, ptr noundef %1) #13
  br label %43

43:                                               ; preds = %.thread, %.critedge, %30, %24
  ret void
}